; Function Attrs: mustprogress nounwind uwtable
define internal fastcc void @_ZN8facebook5velox9functions12_GLOBAL__N_17BuffersD2Ev(ptr nocapture noundef nonnull readonly align 8 dereferenceable(28) %this) unnamed_addr #2 align 2 personality ptr @__gxx_personality_v0 {
entry:
  %nulls = getelementptr inbounds i8, ptr %this, i64 16
  %0 = load ptr, ptr %nulls, align 8
  %cmp.not.i = icmp eq ptr %0, null
  br i1 %cmp.not.i, label %_ZN5boost13intrusive_ptrIN8facebook5velox6BufferEED2Ev.exit, label %if.then.i

if.then.i:                                        ; preds = %entry
  %referenceCount_.i.i.i = getelementptr inbounds i8, ptr %0, i64 40
  %1 = atomicrmw sub ptr %referenceCount_.i.i.i, i32 1 seq_cst, align 4
  %cmp.i.i.i = icmp eq i32 %1, 1
  br i1 %cmp.i.i.i, label %if.then.i.i.i, label %_ZN5boost13intrusive_ptrIN8facebook5velox6BufferEED2Ev.exit

if.then.i.i.i:                                    ; preds = %if.then.i
  %vtable.i.i.i = load ptr, ptr %0, align 8
  %vfn.i.i.i = getelementptr inbounds i8, ptr %vtable.i.i.i, i64 64
  %2 = load ptr, ptr %vfn.i.i.i, align 8
  invoke void %2(ptr noundef nonnull align 8 dereferenceable(64) %0)
          to label %.noexc.i unwind label %terminate.lpad.i

.noexc.i:                                         ; preds = %if.then.i.i.i
  %pool_.i.i.i = getelementptr inbounds i8, ptr %0, i64 8
  %3 = load ptr, ptr %pool_.i.i.i, align 8
  %tobool.not.i.i.i = icmp eq ptr %3, null
  %vtable5.i.i.i = load ptr, ptr %0, align 8
  br i1 %tobool.not.i.i.i, label %delete.notnull.i.i.i, label %if.then2.i.i.i

if.then2.i.i.i:                                   ; preds = %.noexc.i
  %vfn4.i.i.i = getelementptr inbounds i8, ptr %vtable5.i.i.i, i64 48
  %4 = load ptr, ptr %vfn4.i.i.i, align 8
  invoke void %4(ptr noundef nonnull align 8 dereferenceable(64) %0)
          to label %_ZN5boost13intrusive_ptrIN8facebook5velox6BufferEED2Ev.exit unwind label %terminate.lpad.i

delete.notnull.i.i.i:                             ; preds = %.noexc.i
  %vfn6.i.i.i = getelementptr inbounds i8, ptr %vtable5.i.i.i, i64 8
  %5 = load ptr, ptr %vfn6.i.i.i, align 8
  tail call void %5(ptr noundef nonnull align 8 dereferenceable(64) %0) #22
  br label %_ZN5boost13intrusive_ptrIN8facebook5velox6BufferEED2Ev.exit

terminate.lpad.i:                                 ; preds = %if.then2.i.i.i, %if.then.i.i.i
  %6 = landingpad { ptr, i32 }
          catch ptr null
  %7 = extractvalue { ptr, i32 } %6, 0
  tail call void @__clang_call_terminate(ptr %7) #23
  unreachable

_ZN5boost13intrusive_ptrIN8facebook5velox6BufferEED2Ev.exit: ; preds = %entry, %if.then.i, %if.then2.i.i.i, %delete.notnull.i.i.i
  %sizes = getelementptr inbounds i8, ptr %this, i64 8
  %8 = load ptr, ptr %sizes, align 8
  %cmp.not.i1 = icmp eq ptr %8, null
  br i1 %cmp.not.i1, label %_ZN5boost13intrusive_ptrIN8facebook5velox6BufferEED2Ev.exit17, label %if.then.i2

if.then.i2:                                       ; preds = %_ZN5boost13intrusive_ptrIN8facebook5velox6BufferEED2Ev.exit
  %referenceCount_.i.i.i3 = getelementptr inbounds i8, ptr %8, i64 40
  %9 = atomicrmw sub ptr %referenceCount_.i.i.i3, i32 1 seq_cst, align 4
  %cmp.i.i.i4 = icmp eq i32 %9, 1
  br i1 %cmp.i.i.i4, label %if.then.i.i.i5, label %_ZN5boost13intrusive_ptrIN8facebook5velox6BufferEED2Ev.exit17

if.then.i.i.i5:                                   ; preds = %if.then.i2
  %vtable.i.i.i6 = load ptr, ptr %8, align 8
  %vfn.i.i.i7 = getelementptr inbounds i8, ptr %vtable.i.i.i6, i64 64
  %10 = load ptr, ptr %vfn.i.i.i7, align 8
  invoke void %10(ptr noundef nonnull align 8 dereferenceable(64) %8)
          to label %.noexc.i9 unwind label %terminate.lpad.i8

.noexc.i9:                                        ; preds = %if.then.i.i.i5
  %pool_.i.i.i10 = getelementptr inbounds i8, ptr %8, i64 8
  %11 = load ptr, ptr %pool_.i.i.i10, align 8
  %tobool.not.i.i.i11 = icmp eq ptr %11, null
  %vtable5.i.i.i12 = load ptr, ptr %8, align 8
  br i1 %tobool.not.i.i.i11, label %delete.notnull.i.i.i15, label %if.then2.i.i.i13

if.then2.i.i.i13:                                 ; preds = %.noexc.i9
  %vfn4.i.i.i14 = getelementptr inbounds i8, ptr %vtable5.i.i.i12, i64 48
  %12 = load ptr, ptr %vfn4.i.i.i14, align 8
  invoke void %12(ptr noundef nonnull align 8 dereferenceable(64) %8)
          to label %_ZN5boost13intrusive_ptrIN8facebook5velox6BufferEED2Ev.exit17 unwind label %terminate.lpad.i8

delete.notnull.i.i.i15:                           ; preds = %.noexc.i9
  %vfn6.i.i.i16 = getelementptr inbounds i8, ptr %vtable5.i.i.i12, i64 8
  %13 = load ptr, ptr %vfn6.i.i.i16, align 8
  tail call void %13(ptr noundef nonnull align 8 dereferenceable(64) %8) #22
  br label %_ZN5boost13intrusive_ptrIN8facebook5velox6BufferEED2Ev.exit17

terminate.lpad.i8:                                ; preds = %if.then2.i.i.i13, %if.then.i.i.i5
  %14 = landingpad { ptr, i32 }
          catch ptr null
  %15 = extractvalue { ptr, i32 } %14, 0
  tail call void @__clang_call_terminate(ptr %15) #23
  unreachable

_ZN5boost13intrusive_ptrIN8facebook5velox6BufferEED2Ev.exit17: ; preds = %_ZN5boost13intrusive_ptrIN8facebook5velox6BufferEED2Ev.exit, %if.then.i2, %if.then2.i.i.i13, %delete.notnull.i.i.i15
  %16 = load ptr, ptr %this, align 8
  %cmp.not.i18 = icmp eq ptr %16, null
  br i1 %cmp.not.i18, label %_ZN5boost13intrusive_ptrIN8facebook5velox6BufferEED2Ev.exit34, label %if.then.i19

if.then.i19:                                      ; preds = %_ZN5boost13intrusive_ptrIN8facebook5velox6BufferEED2Ev.exit17
  %referenceCount_.i.i.i20 = getelementptr inbounds i8, ptr %16, i64 40
  %17 = atomicrmw sub ptr %referenceCount_.i.i.i20, i32 1 seq_cst, align 4
  %cmp.i.i.i21 = icmp eq i32 %17, 1
  br i1 %cmp.i.i.i21, label %if.then.i.i.i22, label %_ZN5boost13intrusive_ptrIN8facebook5velox6BufferEED2Ev.exit34

if.then.i.i.i22:                                  ; preds = %if.then.i19
  %vtable.i.i.i23 = load ptr, ptr %16, align 8
  %vfn.i.i.i24 = getelementptr inbounds i8, ptr %vtable.i.i.i23, i64 64
  %18 = load ptr, ptr %vfn.i.i.i24, align 8
  invoke void %18(ptr noundef nonnull align 8 dereferenceable(64) %16)
          to label %.noexc.i26 unwind label %terminate.lpad.i25

.noexc.i26:                                       ; preds = %if.then.i.i.i22
  %pool_.i.i.i27 = getelementptr inbounds i8, ptr %16, i64 8
  %19 = load ptr, ptr %pool_.i.i.i27, align 8
  %tobool.not.i.i.i28 = icmp eq ptr %19, null
  %vtable5.i.i.i29 = load ptr, ptr %16, align 8
  br i1 %tobool.not.i.i.i28, label %delete.notnull.i.i.i32, label %if.then2.i.i.i30

if.then2.i.i.i30:                                 ; preds = %.noexc.i26
  %vfn4.i.i.i31 = getelementptr inbounds i8, ptr %vtable5.i.i.i29, i64 48
  %20 = load ptr, ptr %vfn4.i.i.i31, align 8
  invoke void %20(ptr noundef nonnull align 8 dereferenceable(64) %16)
          to label %_ZN5boost13intrusive_ptrIN8facebook5velox6BufferEED2Ev.exit34 unwind label %terminate.lpad.i25

delete.notnull.i.i.i32:                           ; preds = %.noexc.i26
  %vfn6.i.i.i33 = getelementptr inbounds i8, ptr %vtable5.i.i.i29, i64 8
  %21 = load ptr, ptr %vfn6.i.i.i33, align 8
  tail call void %21(ptr noundef nonnull align 8 dereferenceable(64) %16) #22
  br label %_ZN5boost13intrusive_ptrIN8facebook5velox6BufferEED2Ev.exit34

terminate.lpad.i25:                               ; preds = %if.then2.i.i.i30, %if.then.i.i.i22
  %22 = landingpad { ptr, i32 }
          catch ptr null
  %23 = extractvalue { ptr, i32 } %22, 0
  tail call void @__clang_call_terminate(ptr %23) #23
  unreachable

_ZN5boost13intrusive_ptrIN8facebook5velox6BufferEED2Ev.exit34: ; preds = %_ZN5boost13intrusive_ptrIN8facebook5velox6BufferEED2Ev.exit17, %if.then.i19, %if.then2.i.i.i30, %delete.notnull.i.i.i32
  ret void
}